; ModuleID = '51/719.c'
source_filename = "51/719.c"
target datalayout = "e-m:e-p270:32:32-p271:32:32-p272:64:64-i64:64-f80:128-n8:16:32:64-S128"
target triple = "x86_64-pc-linux-gnu"

@b = dso_local global [501 x i32] zeroinitializer, align 16
@sum = dso_local global [501 x i32] zeroinitializer, align 16
@.str = private unnamed_addr constant [3 x i8] c"%d\00", align 1
@.str.1 = private unnamed_addr constant [3 x i8] c"%s\00", align 1
@s = common dso_local global [501 x i8] zeroinitializer, align 16
@a = common dso_local global [501 x [5 x i8]] zeroinitializer, align 16
@tem = common dso_local global [5 x i8] zeroinitializer, align 1
@.str.2 = private unnamed_addr constant [4 x i8] c"%d\0A\00", align 1
@.str.3 = private unnamed_addr constant [4 x i8] c"%s\0A\00", align 1
@.str.4 = private unnamed_addr constant [4 x i8] c"NO\0A\00", align 1

; Function Attrs: noinline nounwind uwtable
define dso_local i32 @main() #0 {
  %1 = alloca i32, align 4
  %2 = alloca i32, align 4
  %3 = alloca i32, align 4
  %4 = alloca i32, align 4
  %5 = alloca i32, align 4
  %6 = alloca i32, align 4
  %7 = alloca i32, align 4
  %8 = alloca i32, align 4
  store i32 0, i32* %1, align 4
  store i32 0, i32* %7, align 4
  store i32 1, i32* %8, align 4
  %9 = call i32 (i8*, ...) @__isoc99_scanf(i8* getelementptr inbounds ([3 x i8], [3 x i8]* @.str, i64 0, i64 0), i32* %2)
  %10 = call i32 (i8*, ...) @__isoc99_scanf(i8* getelementptr inbounds ([3 x i8], [3 x i8]* @.str.1, i64 0, i64 0), i8* getelementptr inbounds ([501 x i8], [501 x i8]* @s, i64 0, i64 0))
  %11 = call i64 @strlen(i8* getelementptr inbounds ([501 x i8], [501 x i8]* @s, i64 0, i64 0)) #4
  %12 = trunc i64 %11 to i32
  store i32 %12, i32* %5, align 4
  store i32 0, i32* %3, align 4
  br label %13

13:                                               ; preds = %45, %0
  %14 = load i32, i32* %3, align 4
  %15 = load i32, i32* %5, align 4
  %16 = load i32, i32* %2, align 4
  %17 = sub nsw i32 %15, %16
  %18 = add nsw i32 %17, 1
  %19 = icmp slt i32 %14, %18
  br i1 %19, label %20, label %48

20:                                               ; preds = %13
  store i32 0, i32* %6, align 4
  %21 = load i32, i32* %3, align 4
  store i32 %21, i32* %4, align 4
  br label %22

22:                                               ; preds = %41, %20
  %23 = load i32, i32* %4, align 4
  %24 = load i32, i32* %3, align 4
  %25 = load i32, i32* %2, align 4
  %26 = add nsw i32 %24, %25
  %27 = icmp slt i32 %23, %26
  br i1 %27, label %28, label %44

28:                                               ; preds = %22
  %29 = load i32, i32* %4, align 4
  %30 = sext i32 %29 to i64
  %31 = getelementptr inbounds [501 x i8], [501 x i8]* @s, i64 0, i64 %30
  %32 = load i8, i8* %31, align 1
  %33 = load i32, i32* %3, align 4
  %34 = sext i32 %33 to i64
  %35 = getelementptr inbounds [501 x [5 x i8]], [501 x [5 x i8]]* @a, i64 0, i64 %34
  %36 = load i32, i32* %6, align 4
  %37 = sext i32 %36 to i64
  %38 = getelementptr inbounds [5 x i8], [5 x i8]* %35, i64 0, i64 %37
  store i8 %32, i8* %38, align 1
  %39 = load i32, i32* %6, align 4
  %40 = add nsw i32 %39, 1
  store i32 %40, i32* %6, align 4
  br label %41

41:                                               ; preds = %28
  %42 = load i32, i32* %4, align 4
  %43 = add nsw i32 %42, 1
  store i32 %43, i32* %4, align 4
  br label %22

44:                                               ; preds = %22
  br label %45

45:                                               ; preds = %44
  %46 = load i32, i32* %3, align 4
  %47 = add nsw i32 %46, 1
  store i32 %47, i32* %3, align 4
  br label %13

48:                                               ; preds = %13
  store i32 0, i32* %3, align 4
  br label %49

49:                                               ; preds = %105, %48
  %50 = load i32, i32* %3, align 4
  %51 = load i32, i32* %5, align 4
  %52 = load i32, i32* %2, align 4
  %53 = sub nsw i32 %51, %52
  %54 = icmp slt i32 %50, %53
  br i1 %54, label %55, label %108

55:                                               ; preds = %49
  %56 = load i32, i32* %3, align 4
  %57 = sext i32 %56 to i64
  %58 = getelementptr inbounds [501 x i32], [501 x i32]* @b, i64 0, i64 %57
  %59 = load i32, i32* %58, align 4
  %60 = icmp eq i32 %59, 0
  br i1 %60, label %61, label %104

61:                                               ; preds = %55
  store i32 1, i32* %6, align 4
  %62 = load i32, i32* %3, align 4
  %63 = add nsw i32 %62, 1
  store i32 %63, i32* %4, align 4
  br label %64

64:                                               ; preds = %89, %61
  %65 = load i32, i32* %4, align 4
  %66 = load i32, i32* %5, align 4
  %67 = load i32, i32* %2, align 4
  %68 = sub nsw i32 %66, %67
  %69 = add nsw i32 %68, 1
  %70 = icmp slt i32 %65, %69
  br i1 %70, label %71, label %92

71:                                               ; preds = %64
  %72 = load i32, i32* %3, align 4
  %73 = sext i32 %72 to i64
  %74 = getelementptr inbounds [501 x [5 x i8]], [501 x [5 x i8]]* @a, i64 0, i64 %73
  %75 = getelementptr inbounds [5 x i8], [5 x i8]* %74, i64 0, i64 0
  %76 = load i32, i32* %4, align 4
  %77 = sext i32 %76 to i64
  %78 = getelementptr inbounds [501 x [5 x i8]], [501 x [5 x i8]]* @a, i64 0, i64 %77
  %79 = getelementptr inbounds [5 x i8], [5 x i8]* %78, i64 0, i64 0
  %80 = call i32 @strcmp(i8* %75, i8* %79) #4
  %81 = icmp eq i32 %80, 0
  br i1 %81, label %82, label %88

82:                                               ; preds = %71
  %83 = load i32, i32* %6, align 4
  %84 = add nsw i32 %83, 1
  store i32 %84, i32* %6, align 4
  %85 = load i32, i32* %4, align 4
  %86 = sext i32 %85 to i64
  %87 = getelementptr inbounds [501 x i32], [501 x i32]* @b, i64 0, i64 %86
  store i32 1, i32* %87, align 4
  br label %88

88:                                               ; preds = %82, %71
  br label %89

89:                                               ; preds = %88
  %90 = load i32, i32* %4, align 4
  %91 = add nsw i32 %90, 1
  store i32 %91, i32* %4, align 4
  br label %64

92:                                               ; preds = %64
  %93 = load i32, i32* %6, align 4
  %94 = load i32, i32* %3, align 4
  %95 = sext i32 %94 to i64
  %96 = getelementptr inbounds [501 x i32], [501 x i32]* @sum, i64 0, i64 %95
  store i32 %93, i32* %96, align 4
  %97 = load i32, i32* %3, align 4
  %98 = sext i32 %97 to i64
  %99 = getelementptr inbounds [501 x i32], [501 x i32]* @sum, i64 0, i64 %98
  %100 = load i32, i32* %99, align 4
  %101 = icmp sgt i32 %100, 1
  br i1 %101, label %102, label %103

102:                                              ; preds = %92
  store i32 1, i32* %7, align 4
  br label %103

103:                                              ; preds = %102, %92
  br label %104

104:                                              ; preds = %103, %55
  br label %105

105:                                              ; preds = %104
  %106 = load i32, i32* %3, align 4
  %107 = add nsw i32 %106, 1
  store i32 %107, i32* %3, align 4
  br label %49

108:                                              ; preds = %49
  %109 = load i32, i32* %7, align 4
  %110 = icmp eq i32 %109, 1
  br i1 %110, label %111, label %226

111:                                              ; preds = %108
  store i32 0, i32* %3, align 4
  br label %112

112:                                              ; preds = %178, %111
  %113 = load i32, i32* %3, align 4
  %114 = load i32, i32* %5, align 4
  %115 = load i32, i32* %2, align 4
  %116 = sub nsw i32 %114, %115
  %117 = icmp slt i32 %113, %116
  br i1 %117, label %118, label %181

118:                                              ; preds = %112
  %119 = load i32, i32* %3, align 4
  %120 = add nsw i32 %119, 1
  store i32 %120, i32* %4, align 4
  br label %121

121:                                              ; preds = %174, %118
  %122 = load i32, i32* %4, align 4
  %123 = load i32, i32* %5, align 4
  %124 = load i32, i32* %2, align 4
  %125 = add nsw i32 %123, %124
  %126 = sub nsw i32 %125, 1
  %127 = icmp slt i32 %122, %126
  br i1 %127, label %128, label %177

128:                                              ; preds = %121
  %129 = load i32, i32* %4, align 4
  %130 = sext i32 %129 to i64
  %131 = getelementptr inbounds [501 x i32], [501 x i32]* @sum, i64 0, i64 %130
  %132 = load i32, i32* %131, align 4
  %133 = load i32, i32* %3, align 4
  %134 = sext i32 %133 to i64
  %135 = getelementptr inbounds [501 x i32], [501 x i32]* @sum, i64 0, i64 %134
  %136 = load i32, i32* %135, align 4
  %137 = icmp sgt i32 %132, %136
  br i1 %137, label %138, label %173

138:                                              ; preds = %128
  %139 = load i32, i32* %3, align 4
  %140 = sext i32 %139 to i64
  %141 = getelementptr inbounds [501 x i32], [501 x i32]* @sum, i64 0, i64 %140
  %142 = load i32, i32* %141, align 4
  store i32 %142, i32* %6, align 4
  %143 = load i32, i32* %4, align 4
  %144 = sext i32 %143 to i64
  %145 = getelementptr inbounds [501 x i32], [501 x i32]* @sum, i64 0, i64 %144
  %146 = load i32, i32* %145, align 4
  %147 = load i32, i32* %3, align 4
  %148 = sext i32 %147 to i64
  %149 = getelementptr inbounds [501 x i32], [501 x i32]* @sum, i64 0, i64 %148
  store i32 %146, i32* %149, align 4
  %150 = load i32, i32* %6, align 4
  %151 = load i32, i32* %4, align 4
  %152 = sext i32 %151 to i64
  %153 = getelementptr inbounds [501 x i32], [501 x i32]* @sum, i64 0, i64 %152
  store i32 %150, i32* %153, align 4
  %154 = load i32, i32* %4, align 4
  %155 = sext i32 %154 to i64
  %156 = getelementptr inbounds [501 x [5 x i8]], [501 x [5 x i8]]* @a, i64 0, i64 %155
  %157 = getelementptr inbounds [5 x i8], [5 x i8]* %156, i64 0, i64 0
  %158 = call i8* @strcpy(i8* getelementptr inbounds ([5 x i8], [5 x i8]* @tem, i64 0, i64 0), i8* %157) #5
  %159 = load i32, i32* %4, align 4
  %160 = sext i32 %159 to i64
  %161 = getelementptr inbounds [501 x [5 x i8]], [501 x [5 x i8]]* @a, i64 0, i64 %160
  %162 = getelementptr inbounds [5 x i8], [5 x i8]* %161, i64 0, i64 0
  %163 = load i32, i32* %3, align 4
  %164 = sext i32 %163 to i64
  %165 = getelementptr inbounds [501 x [5 x i8]], [501 x [5 x i8]]* @a, i64 0, i64 %164
  %166 = getelementptr inbounds [5 x i8], [5 x i8]* %165, i64 0, i64 0
  %167 = call i8* @strcpy(i8* %162, i8* %166) #5
  %168 = load i32, i32* %3, align 4
  %169 = sext i32 %168 to i64
  %170 = getelementptr inbounds [501 x [5 x i8]], [501 x [5 x i8]]* @a, i64 0, i64 %169
  %171 = getelementptr inbounds [5 x i8], [5 x i8]* %170, i64 0, i64 0
  %172 = call i8* @strcpy(i8* %171, i8* getelementptr inbounds ([5 x i8], [5 x i8]* @tem, i64 0, i64 0)) #5
  br label %173

173:                                              ; preds = %138, %128
  br label %174

174:                                              ; preds = %173
  %175 = load i32, i32* %4, align 4
  %176 = add nsw i32 %175, 1
  store i32 %176, i32* %4, align 4
  br label %121

177:                                              ; preds = %121
  br label %178

178:                                              ; preds = %177
  %179 = load i32, i32* %3, align 4
  %180 = add nsw i32 %179, 1
  store i32 %180, i32* %3, align 4
  br label %112

181:                                              ; preds = %112
  store i32 1, i32* %3, align 4
  br label %182

182:                                              ; preds = %205, %181
  %183 = load i32, i32* %3, align 4
  %184 = load i32, i32* %5, align 4
  %185 = load i32, i32* %2, align 4
  %186 = sub nsw i32 %184, %185
  %187 = add nsw i32 %186, 1
  %188 = icmp slt i32 %183, %187
  br i1 %188, label %189, label %208

189:                                              ; preds = %182
  %190 = load i32, i32* %3, align 4
  %191 = sext i32 %190 to i64
  %192 = getelementptr inbounds [501 x i32], [501 x i32]* @sum, i64 0, i64 %191
  %193 = load i32, i32* %192, align 4
  %194 = load i32, i32* %3, align 4
  %195 = sub nsw i32 %194, 1
  %196 = sext i32 %195 to i64
  %197 = getelementptr inbounds [501 x i32], [501 x i32]* @sum, i64 0, i64 %196
  %198 = load i32, i32* %197, align 4
  %199 = icmp eq i32 %193, %198
  br i1 %199, label %200, label %203

200:                                              ; preds = %189
  %201 = load i32, i32* %8, align 4
  %202 = add nsw i32 %201, 1
  store i32 %202, i32* %8, align 4
  br label %204

203:                                              ; preds = %189
  br label %208

204:                                              ; preds = %200
  br label %205

205:                                              ; preds = %204
  %206 = load i32, i32* %3, align 4
  %207 = add nsw i32 %206, 1
  store i32 %207, i32* %3, align 4
  br label %182

208:                                              ; preds = %203, %182
  %209 = load i32, i32* getelementptr inbounds ([501 x i32], [501 x i32]* @sum, i64 0, i64 0), align 16
  %210 = call i32 (i8*, ...) @printf(i8* getelementptr inbounds ([4 x i8], [4 x i8]* @.str.2, i64 0, i64 0), i32 %209)
  store i32 1, i32* %3, align 4
  br label %211

211:                                              ; preds = %222, %208
  %212 = load i32, i32* %3, align 4
  %213 = load i32, i32* %8, align 4
  %214 = icmp sle i32 %212, %213
  br i1 %214, label %215, label %225

215:                                              ; preds = %211
  %216 = load i32, i32* %3, align 4
  %217 = sub nsw i32 %216, 1
  %218 = sext i32 %217 to i64
  %219 = getelementptr inbounds [501 x [5 x i8]], [501 x [5 x i8]]* @a, i64 0, i64 %218
  %220 = getelementptr inbounds [5 x i8], [5 x i8]* %219, i64 0, i64 0
  %221 = call i32 (i8*, ...) @printf(i8* getelementptr inbounds ([4 x i8], [4 x i8]* @.str.3, i64 0, i64 0), i8* %220)
  br label %222

222:                                              ; preds = %215
  %223 = load i32, i32* %3, align 4
  %224 = add nsw i32 %223, 1
  store i32 %224, i32* %3, align 4
  br label %211

225:                                              ; preds = %211
  br label %228

226:                                              ; preds = %108
  %227 = call i32 (i8*, ...) @printf(i8* getelementptr inbounds ([4 x i8], [4 x i8]* @.str.4, i64 0, i64 0))
  br label %228

228:                                              ; preds = %226, %225
  ret i32 0
}

declare dso_local i32 @__isoc99_scanf(i8*, ...) #1

; Function Attrs: nounwind readonly
declare dso_local i64 @strlen(i8*) #2

; Function Attrs: nounwind readonly
declare dso_local i32 @strcmp(i8*, i8*) #2

; Function Attrs: nounwind
declare dso_local i8* @strcpy(i8*, i8*) #3

declare dso_local i32 @printf(i8*, ...) #1


!llvm.module.flags = !{!0}
!llvm.ident = !{!1}

!0 = !{i32 1, !"wchar_size", i32 4}
!1 = !{!"clang version 10.0.0-4ubuntu1 "}
